target datalayout = "e-m:e-p270:32:32-p271:32:32-p272:64:64-i64:64-i128:128-f80:128-n8:16:32:64-S128"
target triple = "x86_64-pc-linux-gnu"

%struct.SwsImg = type { i32, [4 x ptr], [4 x i32] }
%struct.SwsGraph = type { ptr, ptr, i32, i8, i8, ptr, i32, %struct.SwsContext, %struct.SwsFormat, %struct.SwsFormat, i32, %struct.anon }
%struct.SwsContext = type { ptr, ptr, i32, [2 x double], i32, i32, i32, i32, i32, i32, i32, i32, i32, i32, i32, i32, i32, i32, i32, i32, i32 }
%struct.SwsFormat = type { i32, i32, i32, i32, i32, i32, i32, ptr, %struct.SwsColor }
%struct.SwsColor = type { i32, i32, %struct.AVPrimaryCoefficients, %struct.AVRational, %struct.AVRational, %struct.AVRational, %struct.AVRational }
%struct.AVPrimaryCoefficients = type { %struct.AVCIExy, %struct.AVCIExy, %struct.AVCIExy }
%struct.AVCIExy = type { %struct.AVRational, %struct.AVRational }
%struct.AVRational = type { i32, i32 }
%struct.anon = type { ptr, %struct.SwsImg, %struct.SwsImg }

; Function Attrs: inlinehint nounwind uwtable
define internal void @ff_color_update_dynamic(ptr noundef %0, ptr noundef %1) #4 {
  %3 = alloca ptr, align 8
  %4 = alloca ptr, align 8
  store ptr %0, ptr %3, align 8, !tbaa !81
  store ptr %1, ptr %4, align 8, !tbaa !81
  %5 = load ptr, ptr %3, align 8, !tbaa !81
  %6 = getelementptr inbounds nuw %struct.SwsColor, ptr %5, i32 0, i32 5
  %7 = load ptr, ptr %4, align 8, !tbaa !81
  %8 = getelementptr inbounds nuw %struct.SwsColor, ptr %7, i32 0, i32 5
  call void @llvm.memcpy.p0.p0.i64(ptr align 4 %6, ptr align 4 %8, i64 8, i1 false), !tbaa.struct !83
  %9 = load ptr, ptr %3, align 8, !tbaa !81
  %10 = getelementptr inbounds nuw %struct.SwsColor, ptr %9, i32 0, i32 6
  %11 = load ptr, ptr %4, align 8, !tbaa !81
  %12 = getelementptr inbounds nuw %struct.SwsColor, ptr %11, i32 0, i32 6
  call void @llvm.memcpy.p0.p0.i64(ptr align 4 %10, ptr align 4 %12, i64 8, i1 false), !tbaa.struct !83
  ret void
}

; Function Attrs: nounwind uwtable
define void @ff_sws_graph_update_metadata(ptr noundef %0, ptr noundef %1) #0 {
  %3 = alloca ptr, align 8
  %4 = alloca ptr, align 8
  store ptr %0, ptr %3, align 8, !tbaa !4
  store ptr %1, ptr %4, align 8, !tbaa !81
  %5 = load ptr, ptr %4, align 8, !tbaa !81
  %6 = icmp ne ptr %5, null
  br i1 %6, label %8, label %7

7:                                                ; preds = %2
  br label %13

8:                                                ; preds = %2
  %9 = load ptr, ptr %3, align 8, !tbaa !4
  %10 = getelementptr inbounds nuw %struct.SwsGraph, ptr %9, i32 0, i32 8
  %11 = getelementptr inbounds nuw %struct.SwsFormat, ptr %10, i32 0, i32 8
  %12 = load ptr, ptr %4, align 8, !tbaa !81
  call void @ff_color_update_dynamic(ptr noundef %11, ptr noundef %12)
  br label %13

13:                                               ; preds = %8, %7
  ret void
}