; Function Attrs: mustprogress nofree norecurse nosync nounwind willreturn memory(argmem: readwrite) uwtable
define void @ff_sws_graph_update_metadata(ptr noundef writeonly captures(none) %0, ptr noundef readonly captures(address_is_null) %1) local_unnamed_addr #5 {
  %.not = icmp eq ptr %1, null
  br i1 %.not, label %10, label %3

3:                                                ; preds = %2
  %4 = getelementptr inbounds nuw i8, ptr %0, i64 264
  %5 = getelementptr inbounds nuw i8, ptr %1, i64 72
  %6 = load i64, ptr %5, align 4
  store i64 %6, ptr %4, align 4
  %7 = getelementptr inbounds nuw i8, ptr %0, i64 272
  %8 = getelementptr inbounds nuw i8, ptr %1, i64 80
  %9 = load i64, ptr %8, align 4
  store i64 %9, ptr %7, align 4
  br label %10

10:                                               ; preds = %2, %3
  ret void
}